; Function Attrs: mustprogress uwtable
define noundef zeroext i1 @_ZNK6icu_779VTimeZoneeqERKNS_8TimeZoneE(ptr noundef nonnull align 8 dereferenceable(288) %0, ptr noundef nonnull align 8 dereferenceable(72) %1) unnamed_addr #2 align 2 {
  %3 = icmp eq ptr %0, %1
  br i1 %3, label %_ZNKSt9type_infoneERKS_.exit.thread, label %4

4:                                                ; preds = %2
  %5 = load ptr, ptr %0, align 8, !tbaa !17
  %6 = getelementptr inbounds i8, ptr %5, i64 -8
  %7 = load ptr, ptr %6, align 8
  %8 = load ptr, ptr %1, align 8, !tbaa !17
  %9 = getelementptr inbounds i8, ptr %8, i64 -8
  %10 = load ptr, ptr %9, align 8
  %11 = getelementptr inbounds nuw i8, ptr %7, i64 8
  %12 = load ptr, ptr %11, align 8, !tbaa !39
  %13 = getelementptr inbounds nuw i8, ptr %10, i64 8
  %14 = load ptr, ptr %13, align 8, !tbaa !39
  %15 = icmp eq ptr %12, %14
  br i1 %15, label %_ZNKSt9type_infoneERKS_.exit.thread12, label %16

16:                                               ; preds = %4
  %17 = load i8, ptr %12, align 1, !tbaa !9
  %.not.i.i = icmp eq i8 %17, 42
  br i1 %.not.i.i, label %_ZNKSt9type_infoneERKS_.exit.thread, label %_ZNKSt9type_infoneERKS_.exit

_ZNKSt9type_infoneERKS_.exit:                     ; preds = %16
  %18 = load i8, ptr %14, align 1, !tbaa !9
  %19 = icmp eq i8 %18, 42
  %.idx.i.i.i = zext i1 %19 to i64
  %20 = getelementptr inbounds nuw i8, ptr %14, i64 %.idx.i.i.i
  %21 = tail call i32 @strcmp(ptr noundef nonnull dereferenceable(1) %12, ptr noundef nonnull dereferenceable(1) %20) #16
  %.not = icmp eq i32 %21, 0
  br i1 %.not, label %_ZNKSt9type_infoneERKS_.exit.thread12, label %_ZNKSt9type_infoneERKS_.exit.thread

_ZNKSt9type_infoneERKS_.exit.thread12:            ; preds = %4, %_ZNKSt9type_infoneERKS_.exit
  %22 = tail call noundef zeroext i1 @_ZNK6icu_778TimeZoneeqERKS0_(ptr noundef nonnull align 8 dereferenceable(72) %0, ptr noundef nonnull align 8 dereferenceable(72) %1)
  br i1 %22, label %23, label %_ZNKSt9type_infoneERKS_.exit.thread

23:                                               ; preds = %_ZNKSt9type_infoneERKS_.exit.thread12
  %24 = getelementptr inbounds nuw i8, ptr %0, i64 72
  %25 = load ptr, ptr %24, align 8, !tbaa !29
  %26 = getelementptr inbounds nuw i8, ptr %1, i64 72
  %27 = load ptr, ptr %26, align 8, !tbaa !29
  %28 = load ptr, ptr %25, align 8, !tbaa !17
  %29 = getelementptr inbounds nuw i8, ptr %28, i64 24
  %30 = load ptr, ptr %29, align 8
  %31 = tail call noundef zeroext i1 %30(ptr noundef nonnull align 8 dereferenceable(72) %25, ptr noundef nonnull align 8 dereferenceable(72) %27)
  br i1 %31, label %32, label %_ZNK6icu_7713UnicodeStringeqERKS0_.exit.thread

32:                                               ; preds = %23
  %33 = getelementptr inbounds nuw i8, ptr %0, i64 88
  %34 = getelementptr inbounds nuw i8, ptr %0, i64 96
  %35 = load i16, ptr %34, align 8, !tbaa !9
  %36 = and i16 %35, 1
  %.not.i = icmp eq i16 %36, 0
  br i1 %.not.i, label %41, label %37

37:                                               ; preds = %32
  %38 = getelementptr inbounds nuw i8, ptr %1, i64 96
  %39 = load i16, ptr %38, align 8, !tbaa !9
  %40 = and i16 %39, 1
  %.not15 = icmp eq i16 %40, 0
  br i1 %.not15, label %_ZNK6icu_7713UnicodeStringeqERKS0_.exit.thread, label %64

41:                                               ; preds = %32
  %42 = icmp slt i16 %35, 0
  %43 = ashr i16 %35, 5
  %44 = sext i16 %43 to i32
  %45 = getelementptr inbounds nuw i8, ptr %0, i64 100
  %46 = load i32, ptr %45, align 4
  %47 = select i1 %42, i32 %46, i32 %44
  %48 = getelementptr inbounds nuw i8, ptr %1, i64 96
  %49 = load i16, ptr %48, align 8, !tbaa !9
  %50 = icmp slt i16 %49, 0
  %51 = ashr i16 %49, 5
  %52 = sext i16 %51 to i32
  %53 = getelementptr inbounds nuw i8, ptr %1, i64 100
  %54 = load i32, ptr %53, align 4
  %55 = select i1 %50, i32 %54, i32 %52
  %56 = and i16 %49, 1
  %.not9.i = icmp eq i16 %56, 0
  %57 = icmp eq i32 %47, %55
  %or.cond.i = and i1 %.not9.i, %57
  br i1 %or.cond.i, label %_ZNK6icu_7713UnicodeStringeqERKS0_.exit, label %_ZNK6icu_7713UnicodeStringeqERKS0_.exit.thread

_ZNK6icu_7713UnicodeStringeqERKS0_.exit:          ; preds = %41
  %58 = and i16 %49, 2
  %.not.i.i.i = icmp eq i16 %58, 0
  %59 = getelementptr inbounds nuw i8, ptr %1, i64 98
  %60 = getelementptr inbounds nuw i8, ptr %1, i64 112
  %61 = load ptr, ptr %60, align 8
  %62 = select i1 %.not.i.i.i, ptr %61, ptr %59
  %63 = tail call noundef signext i8 @_ZNK6icu_7713UnicodeString8doEqualsEPKDsi(ptr noundef nonnull align 8 dereferenceable(64) %33, ptr noundef %62, i32 noundef %47)
  %.not16 = icmp eq i8 %63, 0
  br i1 %.not16, label %_ZNK6icu_7713UnicodeStringeqERKS0_.exit.thread, label %64

64:                                               ; preds = %37, %_ZNK6icu_7713UnicodeStringeqERKS0_.exit
  %65 = getelementptr inbounds nuw i8, ptr %0, i64 152
  %66 = load double, ptr %65, align 8, !tbaa !19
  %67 = getelementptr inbounds nuw i8, ptr %1, i64 152
  %68 = load double, ptr %67, align 8, !tbaa !19
  %69 = fcmp oeq double %66, %68
  br i1 %69, label %_ZNKSt9type_infoneERKS_.exit.thread, label %_ZNK6icu_7713UnicodeStringeqERKS0_.exit.thread

_ZNK6icu_7713UnicodeStringeqERKS0_.exit.thread:   ; preds = %41, %37, %64, %_ZNK6icu_7713UnicodeStringeqERKS0_.exit, %23
  br label %_ZNKSt9type_infoneERKS_.exit.thread

_ZNKSt9type_infoneERKS_.exit.thread:              ; preds = %16, %_ZNK6icu_7713UnicodeStringeqERKS0_.exit.thread, %64, %_ZNKSt9type_infoneERKS_.exit, %_ZNKSt9type_infoneERKS_.exit.thread12, %2
  %.0 = phi i1 [ true, %2 ], [ false, %_ZNKSt9type_infoneERKS_.exit.thread12 ], [ false, %_ZNKSt9type_infoneERKS_.exit ], [ false, %_ZNK6icu_7713UnicodeStringeqERKS0_.exit.thread ], [ true, %64 ], [ false, %16 ]
  ret i1 %.0
}